; Function Attrs: nofree nosync nounwind memory(readwrite, inaccessiblemem: none) uwtable
define internal fastcc void @tune_call2_call(ptr noundef captures(none) %0) unnamed_addr #15 {
  br label %tailrecurse

tailrecurse:                                      ; preds = %tailrecurse.backedge, %1
  %.tr = phi ptr [ %0, %1 ], [ %.tr.be, %tailrecurse.backedge ]
  %2 = load i32, ptr %.tr, align 8, !tbaa !20
  switch i32 %2, label %common.ret58 [
    i32 7, label %.preheader
    i32 8, label %.preheader
    i32 4, label %tailrecurse.backedge.sink.split
    i32 6, label %10
    i32 5, label %14
    i32 9, label %36
  ]

.preheader:                                       ; preds = %tailrecurse, %tailrecurse
  br label %3

3:                                                ; preds = %.preheader, %3
  %.0 = phi ptr [ %7, %3 ], [ %.tr, %.preheader ]
  %4 = getelementptr inbounds nuw i8, ptr %.0, i64 16
  %5 = load ptr, ptr %4, align 8, !tbaa !20
  tail call fastcc void @tune_call2_call(ptr noundef %5)
  %6 = getelementptr inbounds nuw i8, ptr %.0, i64 24
  %7 = load ptr, ptr %6, align 8, !tbaa !20
  %.not34 = icmp eq ptr %7, null
  br i1 %.not34, label %common.ret58, label %3, !llvm.loop !255

tailrecurse.backedge.sink.split:                  ; preds = %tailrecurse, %14, %10
  %8 = getelementptr inbounds nuw i8, ptr %.tr, i64 16
  %9 = load ptr, ptr %8, align 8, !tbaa !20
  br label %tailrecurse.backedge

tailrecurse.backedge:                             ; preds = %tailrecurse.backedge.sink.split, %33
  %.tr.be = phi ptr [ %35, %33 ], [ %9, %tailrecurse.backedge.sink.split ]
  br label %tailrecurse

10:                                               ; preds = %tailrecurse
  %11 = getelementptr inbounds nuw i8, ptr %.tr, i64 24
  %12 = load i32, ptr %11, align 8, !tbaa !20
  %13 = icmp slt i32 %12, 16
  br i1 %13, label %tailrecurse.backedge.sink.split, label %common.ret58

14:                                               ; preds = %tailrecurse
  %15 = getelementptr inbounds nuw i8, ptr %.tr, i64 24
  %16 = load i32, ptr %15, align 8, !tbaa !98
  switch i32 %16, label %tailrecurse.backedge.sink.split [
    i32 0, label %17
    i32 3, label %27
  ]

17:                                               ; preds = %14
  %18 = getelementptr inbounds nuw i8, ptr %.tr, i64 4
  %19 = load i32, ptr %18, align 4, !tbaa !20
  %20 = and i32 %19, 8
  %.not33 = icmp eq i32 %20, 0
  br i1 %.not33, label %21, label %common.ret58

common.ret58:                                     ; preds = %17, %36, %3, %33, %tailrecurse, %10, %40, %21
  ret void

21:                                               ; preds = %17
  %22 = or disjoint i32 %19, 8
  store i32 %22, ptr %18, align 4, !tbaa !20
  %23 = getelementptr inbounds nuw i8, ptr %.tr, i64 16
  %24 = load ptr, ptr %23, align 8, !tbaa !20
  tail call fastcc void @tune_call2_call(ptr noundef %24)
  %25 = load i32, ptr %18, align 4, !tbaa !20
  %26 = and i32 %25, -9
  store i32 %26, ptr %18, align 4, !tbaa !20
  br label %common.ret58

27:                                               ; preds = %14
  %28 = getelementptr inbounds nuw i8, ptr %.tr, i64 16
  %29 = load ptr, ptr %28, align 8, !tbaa !20
  tail call fastcc void @tune_call2_call(ptr noundef %29)
  %30 = getelementptr inbounds nuw i8, ptr %.tr, i64 32
  %31 = load ptr, ptr %30, align 8, !tbaa !20
  %.not31 = icmp eq ptr %31, null
  br i1 %.not31, label %33, label %32

32:                                               ; preds = %27
  tail call fastcc void @tune_call2_call(ptr noundef nonnull %31)
  br label %33

33:                                               ; preds = %32, %27
  %34 = getelementptr inbounds nuw i8, ptr %.tr, i64 40
  %35 = load ptr, ptr %34, align 8, !tbaa !20
  %.not32 = icmp eq ptr %35, null
  br i1 %.not32, label %common.ret58, label %tailrecurse.backedge

36:                                               ; preds = %tailrecurse
  %37 = getelementptr inbounds nuw i8, ptr %.tr, i64 4
  %38 = load i32, ptr %37, align 4, !tbaa !20
  %39 = and i32 %38, 8
  %.not = icmp eq i32 %39, 0
  br i1 %.not, label %40, label %common.ret58

40:                                               ; preds = %36
  %41 = or disjoint i32 %38, 8
  store i32 %41, ptr %37, align 4, !tbaa !20
  %42 = getelementptr inbounds nuw i8, ptr %.tr, i64 16
  %43 = load ptr, ptr %42, align 8, !tbaa !133
  %44 = getelementptr inbounds nuw i8, ptr %.tr, i64 48
  %45 = load i32, ptr %44, align 8, !tbaa !256
  %46 = add nsw i32 %45, 1
  store i32 %46, ptr %44, align 8, !tbaa !256
  %47 = getelementptr inbounds nuw i8, ptr %43, i64 4
  %48 = load i32, ptr %47, align 4, !tbaa !20
  %49 = or i32 %48, 128
  store i32 %49, ptr %47, align 4, !tbaa !20
  %50 = getelementptr inbounds nuw i8, ptr %43, i64 40
  %51 = load i32, ptr %50, align 8, !tbaa !20
  %52 = add nsw i32 %51, 1
  store i32 %52, ptr %50, align 8, !tbaa !20
  tail call fastcc void @tune_call2_call(ptr noundef %43)
  %53 = load i32, ptr %37, align 4, !tbaa !20
  %54 = and i32 %53, -9
  store i32 %54, ptr %37, align 4, !tbaa !20
  br label %common.ret58
}